target datalayout = "e-m:e-p270:32:32-p271:32:32-p272:64:64-i64:64-i128:128-f80:128-n8:16:32:64-S128"
target triple = "x86_64-pc-linux-gnu"

@hf_cursor_unique = internal global i32 0, align 4
@hf_cursor_type = internal global i32 0, align 4
@hf_cursor_width = internal global i32 0, align 4
@hf_cursor_height = internal global i32 0, align 4
@hf_cursor_hotspot_x = internal global i32 0, align 4
@hf_cursor_hotspot_y = internal global i32 0, align 4
@hf_cursor_flags = internal global i32 0, align 4
@hf_spice_cursor_data = internal global i32 0, align 4
@ett_cursor_header = internal global i32 0, align 4
@ett_RedCursor = internal global i32 0, align 4
@.str.953 = private unnamed_addr constant [10 x i8] c"RedCursor\00", align 1
@.str.954 = private unnamed_addr constant [14 x i8] c"Cursor Header\00", align 1

; Function Attrs: null_pointer_is_valid sspstrong uwtable
define internal zeroext i8 @dissect_CursorHeader(ptr noundef %0, ptr noundef %1, i32 noundef %2, ptr noundef %3, ptr noundef %4) #0 {
  %6 = alloca ptr, align 8
  %7 = alloca ptr, align 8
  %8 = alloca i32, align 4
  %9 = alloca ptr, align 8
  %10 = alloca ptr, align 8
  %11 = alloca i8, align 1
  %12 = alloca ptr, align 8
  store ptr %0, ptr %6, align 8
  store ptr %1, ptr %7, align 8
  store i32 %2, ptr %8, align 4
  store ptr %3, ptr %9, align 8
  store ptr %4, ptr %10, align 8
  call void @llvm.lifetime.start.p0(i64 1, ptr %11) #6
  %13 = load ptr, ptr %6, align 8
  %14 = load i32, ptr %8, align 4
  %15 = add i32 %14, 8
  %16 = call zeroext i8 @tvb_get_uint8(ptr noundef %13, i32 noundef %15)
  store i8 %16, ptr %11, align 1
  %17 = load ptr, ptr %6, align 8
  %18 = load i32, ptr %8, align 4
  %19 = add i32 %18, 8
  %20 = add i32 %19, 1
  %21 = call zeroext i16 @tvb_get_letohs(ptr noundef %17, i32 noundef %20)
  %22 = load ptr, ptr %9, align 8
  store i16 %21, ptr %22, align 2
  %23 = load ptr, ptr %6, align 8
  %24 = load i32, ptr %8, align 4
  %25 = add i32 %24, 8
  %26 = add i32 %25, 1
  %27 = add i32 %26, 2
  %28 = call zeroext i16 @tvb_get_letohs(ptr noundef %23, i32 noundef %27)
  %29 = load ptr, ptr %10, align 8
  store i16 %28, ptr %29, align 2
  %30 = load ptr, ptr %7, align 8
  %31 = icmp ne ptr %30, null
  br i1 %31, label %32, label %78

32:                                               ; preds = %5
  call void @llvm.lifetime.start.p0(i64 8, ptr %12) #6
  %33 = load ptr, ptr %7, align 8
  %34 = load ptr, ptr %6, align 8
  %35 = load i32, ptr %8, align 4
  %36 = load i32, ptr @ett_cursor_header, align 4
  %37 = call ptr @proto_tree_add_subtree(ptr noundef %33, ptr noundef %34, i32 noundef %35, i32 noundef 17, i32 noundef %36, ptr noundef null, ptr noundef @.str.954)
  store ptr %37, ptr %12, align 8
  %38 = load ptr, ptr %12, align 8
  %39 = load i32, ptr @hf_cursor_unique, align 4
  %40 = load ptr, ptr %6, align 8
  %41 = load i32, ptr %8, align 4
  %42 = call ptr @proto_tree_add_item(ptr noundef %38, i32 noundef %39, ptr noundef %40, i32 noundef %41, i32 noundef 8, i32 noundef -2147483648)
  %43 = load i32, ptr %8, align 4
  %44 = add i32 %43, 8
  store i32 %44, ptr %8, align 4
  %45 = load ptr, ptr %12, align 8
  %46 = load i32, ptr @hf_cursor_type, align 4
  %47 = load ptr, ptr %6, align 8
  %48 = load i32, ptr %8, align 4
  %49 = call ptr @proto_tree_add_item(ptr noundef %45, i32 noundef %46, ptr noundef %47, i32 noundef %48, i32 noundef 1, i32 noundef -2147483648)
  %50 = load i32, ptr %8, align 4
  %51 = add i32 %50, 1
  store i32 %51, ptr %8, align 4
  %52 = load ptr, ptr %12, align 8
  %53 = load i32, ptr @hf_cursor_width, align 4
  %54 = load ptr, ptr %6, align 8
  %55 = load i32, ptr %8, align 4
  %56 = call ptr @proto_tree_add_item(ptr noundef %52, i32 noundef %53, ptr noundef %54, i32 noundef %55, i32 noundef 2, i32 noundef -2147483648)
  %57 = load i32, ptr %8, align 4
  %58 = add i32 %57, 2
  store i32 %58, ptr %8, align 4
  %59 = load ptr, ptr %12, align 8
  %60 = load i32, ptr @hf_cursor_height, align 4
  %61 = load ptr, ptr %6, align 8
  %62 = load i32, ptr %8, align 4
  %63 = call ptr @proto_tree_add_item(ptr noundef %59, i32 noundef %60, ptr noundef %61, i32 noundef %62, i32 noundef 2, i32 noundef -2147483648)
  %64 = load i32, ptr %8, align 4
  %65 = add i32 %64, 2
  store i32 %65, ptr %8, align 4
  %66 = load ptr, ptr %12, align 8
  %67 = load i32, ptr @hf_cursor_hotspot_x, align 4
  %68 = load ptr, ptr %6, align 8
  %69 = load i32, ptr %8, align 4
  %70 = call ptr @proto_tree_add_item(ptr noundef %66, i32 noundef %67, ptr noundef %68, i32 noundef %69, i32 noundef 2, i32 noundef -2147483648)
  %71 = load i32, ptr %8, align 4
  %72 = add i32 %71, 2
  store i32 %72, ptr %8, align 4
  %73 = load ptr, ptr %12, align 8
  %74 = load i32, ptr @hf_cursor_hotspot_y, align 4
  %75 = load ptr, ptr %6, align 8
  %76 = load i32, ptr %8, align 4
  %77 = call ptr @proto_tree_add_item(ptr noundef %73, i32 noundef %74, ptr noundef %75, i32 noundef %76, i32 noundef 2, i32 noundef -2147483648)
  call void @llvm.lifetime.end.p0(i64 8, ptr %12) #6
  br label %78

78:                                               ; preds = %32, %5
  %79 = load i8, ptr %11, align 1
  call void @llvm.lifetime.end.p0(i64 1, ptr %11) #6
  ret i8 %79
}

; Function Attrs: null_pointer_is_valid sspstrong uwtable
define internal i32 @dissect_RedCursor(ptr noundef %0, ptr noundef %1, i32 noundef %2) #0 {
  %4 = alloca i32, align 4
  %5 = alloca ptr, align 8
  %6 = alloca ptr, align 8
  %7 = alloca i32, align 4
  %8 = alloca ptr, align 8
  %9 = alloca ptr, align 8
  %10 = alloca i8, align 1
  %11 = alloca i16, align 2
  %12 = alloca i16, align 2
  %13 = alloca i32, align 4
  %14 = alloca i16, align 2
  %15 = alloca i32, align 4
  %16 = alloca i32, align 4
  store ptr %0, ptr %5, align 8
  store ptr %1, ptr %6, align 8
  store i32 %2, ptr %7, align 4
  call void @llvm.lifetime.start.p0(i64 8, ptr %8) #6
  call void @llvm.lifetime.start.p0(i64 8, ptr %9) #6
  call void @llvm.lifetime.start.p0(i64 1, ptr %10) #6
  call void @llvm.lifetime.start.p0(i64 2, ptr %11) #6
  call void @llvm.lifetime.start.p0(i64 2, ptr %12) #6
  call void @llvm.lifetime.start.p0(i64 4, ptr %13) #6
  %17 = load i32, ptr %7, align 4
  store i32 %17, ptr %13, align 4
  call void @llvm.lifetime.start.p0(i64 2, ptr %14) #6
  %18 = load ptr, ptr %5, align 8
  %19 = load i32, ptr %7, align 4
  %20 = call zeroext i16 @tvb_get_letohs(ptr noundef %18, i32 noundef %19)
  store i16 %20, ptr %14, align 2
  call void @llvm.lifetime.start.p0(i64 4, ptr %15) #6
  store i32 0, ptr %15, align 4
  %21 = load ptr, ptr %6, align 8
  %22 = load ptr, ptr %5, align 8
  %23 = load i32, ptr %7, align 4
  %24 = load i32, ptr @ett_RedCursor, align 4
  %25 = call ptr @proto_tree_add_subtree(ptr noundef %21, ptr noundef %22, i32 noundef %23, i32 noundef 2, i32 noundef %24, ptr noundef %8, ptr noundef @.str.953)
  store ptr %25, ptr %9, align 8
  %26 = load ptr, ptr %9, align 8
  %27 = load i32, ptr @hf_cursor_flags, align 4
  %28 = load ptr, ptr %5, align 8
  %29 = load i32, ptr %7, align 4
  %30 = call ptr @proto_tree_add_item(ptr noundef %26, i32 noundef %27, ptr noundef %28, i32 noundef %29, i32 noundef 2, i32 noundef -2147483648)
  %31 = load i16, ptr %14, align 2
  %32 = zext i16 %31 to i32
  %33 = icmp eq i32 %32, 1
  br i1 %33, label %34, label %35

34:                                               ; preds = %3
  store i32 2, ptr %4, align 4
  store i32 1, ptr %16, align 4
  br label %107

35:                                               ; preds = %3
  %36 = load i32, ptr %7, align 4
  %37 = add i32 %36, 2
  store i32 %37, ptr %7, align 4
  %38 = load ptr, ptr %5, align 8
  %39 = load ptr, ptr %9, align 8
  %40 = load i32, ptr %7, align 4
  %41 = call zeroext i8 @dissect_CursorHeader(ptr noundef %38, ptr noundef %39, i32 noundef %40, ptr noundef %12, ptr noundef %11)
  store i8 %41, ptr %10, align 1
  %42 = load i32, ptr %7, align 4
  %43 = add i32 %42, 17
  store i32 %43, ptr %7, align 4
  %44 = load i16, ptr %12, align 2
  %45 = zext i16 %44 to i32
  %46 = icmp eq i32 %45, 0
  br i1 %46, label %55, label %47

47:                                               ; preds = %35
  %48 = load i16, ptr %11, align 2
  %49 = zext i16 %48 to i32
  %50 = icmp eq i32 %49, 0
  br i1 %50, label %55, label %51

51:                                               ; preds = %47
  %52 = load i16, ptr %14, align 2
  %53 = zext i16 %52 to i32
  %54 = icmp eq i32 %53, 4
  br i1 %54, label %55, label %63

55:                                               ; preds = %51, %47, %35
  %56 = load ptr, ptr %8, align 8
  %57 = load i32, ptr %7, align 4
  %58 = load i32, ptr %13, align 4
  %59 = sub i32 %57, %58
  call void @proto_item_set_len(ptr noundef %56, i32 noundef %59)
  %60 = load i32, ptr %7, align 4
  %61 = load i32, ptr %13, align 4
  %62 = sub i32 %60, %61
  store i32 %62, ptr %4, align 4
  store i32 1, ptr %16, align 4
  br label %107

63:                                               ; preds = %51
  %64 = load i8, ptr %10, align 1
  %65 = zext i8 %64 to i32
  switch i32 %65, label %83 [
    i32 0, label %66
    i32 1, label %73
    i32 2, label %82
    i32 3, label %82
    i32 4, label %82
    i32 5, label %82
    i32 6, label %82
  ]

66:                                               ; preds = %63
  %67 = load i16, ptr %12, align 2
  %68 = zext i16 %67 to i32
  %69 = shl i32 %68, 2
  %70 = load i16, ptr %11, align 2
  %71 = zext i16 %70 to i32
  %72 = mul i32 %69, %71
  store i32 %72, ptr %15, align 4
  br label %84

73:                                               ; preds = %63
  %74 = load i16, ptr %12, align 2
  %75 = zext i16 %74 to i32
  %76 = add i32 %75, 7
  %77 = and i32 %76, -8
  %78 = ashr i32 %77, 2
  %79 = load i16, ptr %11, align 2
  %80 = zext i16 %79 to i32
  %81 = mul i32 %78, %80
  store i32 %81, ptr %15, align 4
  br label %84

82:                                               ; preds = %63, %63, %63, %63, %63
  br label %84

83:                                               ; preds = %63
  store i32 0, ptr %15, align 4
  br label %84

84:                                               ; preds = %83, %82, %73, %66
  %85 = load i32, ptr %15, align 4
  %86 = icmp ne i32 %85, 0
  br i1 %86, label %87, label %94

87:                                               ; preds = %84
  %88 = load ptr, ptr %9, align 8
  %89 = load i32, ptr @hf_spice_cursor_data, align 4
  %90 = load ptr, ptr %5, align 8
  %91 = load i32, ptr %7, align 4
  %92 = load i32, ptr %15, align 4
  %93 = call ptr @proto_tree_add_item(ptr noundef %88, i32 noundef %89, ptr noundef %90, i32 noundef %91, i32 noundef %92, i32 noundef 0)
  br label %100

94:                                               ; preds = %84
  %95 = load ptr, ptr %9, align 8
  %96 = load i32, ptr @hf_spice_cursor_data, align 4
  %97 = load ptr, ptr %5, align 8
  %98 = load i32, ptr %7, align 4
  %99 = call ptr @proto_tree_add_item(ptr noundef %95, i32 noundef %96, ptr noundef %97, i32 noundef %98, i32 noundef -1, i32 noundef 0)
  br label %100

100:                                              ; preds = %94, %87
  %101 = load i32, ptr %15, align 4
  %102 = load i32, ptr %7, align 4
  %103 = add i32 %102, %101
  store i32 %103, ptr %7, align 4
  %104 = load i32, ptr %7, align 4
  %105 = load i32, ptr %13, align 4
  %106 = sub i32 %104, %105
  store i32 %106, ptr %4, align 4
  store i32 1, ptr %16, align 4
  br label %107

107:                                              ; preds = %100, %55, %34
  call void @llvm.lifetime.end.p0(i64 4, ptr %15) #6
  call void @llvm.lifetime.end.p0(i64 2, ptr %14) #6
  call void @llvm.lifetime.end.p0(i64 4, ptr %13) #6
  call void @llvm.lifetime.end.p0(i64 2, ptr %12) #6
  call void @llvm.lifetime.end.p0(i64 2, ptr %11) #6
  call void @llvm.lifetime.end.p0(i64 1, ptr %10) #6
  call void @llvm.lifetime.end.p0(i64 8, ptr %9) #6
  call void @llvm.lifetime.end.p0(i64 8, ptr %8) #6
  %108 = load i32, ptr %4, align 4
  ret i32 %108
}