; Function Attrs: null_pointer_is_valid sspstrong uwtable
define internal fastcc i32 @dissect_RedCursor(ptr noundef %0, ptr noundef %1, i32 noundef %2) unnamed_addr #0 {
  %4 = alloca ptr, align 8
  call void @llvm.lifetime.start.p0(i64 8, ptr nonnull %4) #5
  %5 = tail call zeroext i16 @tvb_get_letohs(ptr noundef %0, i32 noundef %2)
  %6 = load i32, ptr @ett_RedCursor, align 4
  %7 = call ptr @proto_tree_add_subtree(ptr noundef %1, ptr noundef %0, i32 noundef %2, i32 noundef 2, i32 noundef %6, ptr noundef nonnull %4, ptr noundef nonnull @.str.953)
  %8 = load i32, ptr @hf_cursor_flags, align 4
  %9 = call ptr @proto_tree_add_item(ptr noundef %7, i32 noundef %8, ptr noundef %0, i32 noundef %2, i32 noundef 2, i32 noundef -2147483648)
  %10 = icmp eq i16 %5, 1
  br i1 %10, label %58, label %11

11:                                               ; preds = %3
  %12 = add i32 %2, 10
  %13 = call zeroext i8 @tvb_get_uint8(ptr noundef %0, i32 noundef %12)
  %14 = add i32 %2, 11
  %15 = call zeroext i16 @tvb_get_letohs(ptr noundef %0, i32 noundef %14)
  %16 = add i32 %2, 13
  %17 = call zeroext i16 @tvb_get_letohs(ptr noundef %0, i32 noundef %16)
  %.not.i = icmp eq ptr %7, null
  br i1 %.not.i, label %dissect_CursorHeader.exit, label %18

18:                                               ; preds = %11
  %19 = add i32 %2, 2
  %20 = load i32, ptr @ett_cursor_header, align 4
  %21 = call ptr @proto_tree_add_subtree(ptr noundef nonnull %7, ptr noundef %0, i32 noundef %19, i32 noundef 17, i32 noundef %20, ptr noundef null, ptr noundef nonnull @.str.954)
  %22 = load i32, ptr @hf_cursor_unique, align 4
  %23 = call ptr @proto_tree_add_item(ptr noundef %21, i32 noundef %22, ptr noundef %0, i32 noundef %19, i32 noundef 8, i32 noundef -2147483648)
  %24 = load i32, ptr @hf_cursor_type, align 4
  %25 = call ptr @proto_tree_add_item(ptr noundef %21, i32 noundef %24, ptr noundef %0, i32 noundef %12, i32 noundef 1, i32 noundef -2147483648)
  %26 = load i32, ptr @hf_cursor_width, align 4
  %27 = call ptr @proto_tree_add_item(ptr noundef %21, i32 noundef %26, ptr noundef %0, i32 noundef %14, i32 noundef 2, i32 noundef -2147483648)
  %28 = load i32, ptr @hf_cursor_height, align 4
  %29 = call ptr @proto_tree_add_item(ptr noundef %21, i32 noundef %28, ptr noundef %0, i32 noundef %16, i32 noundef 2, i32 noundef -2147483648)
  %30 = add i32 %2, 15
  %31 = load i32, ptr @hf_cursor_hotspot_x, align 4
  %32 = call ptr @proto_tree_add_item(ptr noundef %21, i32 noundef %31, ptr noundef %0, i32 noundef %30, i32 noundef 2, i32 noundef -2147483648)
  %33 = add i32 %2, 17
  %34 = load i32, ptr @hf_cursor_hotspot_y, align 4
  %35 = call ptr @proto_tree_add_item(ptr noundef %21, i32 noundef %34, ptr noundef %0, i32 noundef %33, i32 noundef 2, i32 noundef -2147483648)
  br label %dissect_CursorHeader.exit

dissect_CursorHeader.exit:                        ; preds = %11, %18
  %36 = add i32 %2, 19
  %37 = zext i16 %15 to i32
  %38 = icmp eq i16 %15, 0
  %39 = zext i16 %17 to i32
  %40 = icmp eq i16 %17, 0
  %or.cond = select i1 %38, i1 true, i1 %40
  %41 = icmp eq i16 %5, 4
  %or.cond5 = select i1 %or.cond, i1 true, i1 %41
  br i1 %or.cond5, label %42, label %44

42:                                               ; preds = %dissect_CursorHeader.exit
  %43 = load ptr, ptr %4, align 8
  call void @proto_item_set_len(ptr noundef %43, i32 noundef 19)
  br label %58

44:                                               ; preds = %dissect_CursorHeader.exit
  switch i8 %13, label %.thread [
    i8 0, label %45
    i8 1, label %47
  ]

45:                                               ; preds = %44
  %46 = shl nuw nsw i32 %37, 2
  br label %51

47:                                               ; preds = %44
  %48 = add nuw nsw i32 %37, 7
  %49 = lshr i32 %48, 2
  %50 = and i32 %49, 32766
  br label %51

51:                                               ; preds = %47, %45
  %.pn = phi i32 [ %50, %47 ], [ %46, %45 ]
  %.0 = mul i32 %.pn, %39
  %.not = icmp eq i32 %.0, 0
  br i1 %.not, label %.thread, label %52

52:                                               ; preds = %51
  %53 = load i32, ptr @hf_spice_cursor_data, align 4
  %54 = call ptr @proto_tree_add_item(ptr noundef %7, i32 noundef %53, ptr noundef %0, i32 noundef %36, i32 noundef %.0, i32 noundef 0)
  %55 = add i32 %.0, 19
  br label %58

.thread:                                          ; preds = %44, %51
  %56 = load i32, ptr @hf_spice_cursor_data, align 4
  %57 = call ptr @proto_tree_add_item(ptr noundef %7, i32 noundef %56, ptr noundef %0, i32 noundef %36, i32 noundef -1, i32 noundef 0)
  br label %58

58:                                               ; preds = %52, %.thread, %3, %42
  %.038 = phi i32 [ 19, %42 ], [ 2, %3 ], [ 19, %.thread ], [ %55, %52 ]
  call void @llvm.lifetime.end.p0(i64 8, ptr nonnull %4) #5
  ret i32 %.038
}